; Function Attrs: mustprogress nofree norecurse nosync nounwind willreturn memory(readwrite, argmem: write, inaccessiblemem: none) uwtable
define dso_local void @_ZN5ImGui15DebugLocateItemEj(i32 noundef %0) local_unnamed_addr #50 {
  %2 = load ptr, ptr @GImGui, align 8, !tbaa !211
  %3 = getelementptr inbounds nuw i8, ptr %2, i64 7372
  store i32 %0, ptr %3, align 4, !tbaa !642
  %4 = getelementptr inbounds nuw i8, ptr %2, i64 9905
  store i8 2, ptr %4, align 1, !tbaa !1005
  %5 = getelementptr inbounds nuw i8, ptr %2, i64 9906
  store i8 0, ptr %5, align 2, !tbaa !650
  ret void
}